target datalayout = "e-m:e-p270:32:32-p271:32:32-p272:64:64-i64:64-i128:128-f80:128-n8:16:32:64-S128"
target triple = "x86_64-pc-linux-gnu"

%class.SystemProperty = type <{ %class.PathString, ptr, ptr, i8, i8, [6 x i8] }>
%class.PathString = type { ptr }

@_ZN9Arguments18_system_propertiesE = external global ptr, align 8
@.str.29 = private unnamed_addr constant [27 x i8] c"jdk.boot.class.path.append\00", align 1

; Function Attrs: mustprogress nounwind uwtable
define linkonce_odr hidden noundef ptr @_ZNK10PathString5valueEv(ptr noundef nonnull align 8 dereferenceable(8) %0) #1 comdat align 2 {
  %2 = alloca ptr, align 8
  store ptr %0, ptr %2, align 8
  %3 = load ptr, ptr %2, align 8
  %4 = getelementptr inbounds %class.PathString, ptr %3, i32 0, i32 0
  %5 = load ptr, ptr %4, align 8
  ret ptr %5
}

; Function Attrs: mustprogress nounwind uwtable
define linkonce_odr hidden noundef i32 @_ZN12JvmtiEnvBase10deallocateEPh(ptr noundef nonnull align 8 dereferenceable(460) %0, ptr noundef %1) #1 comdat align 2 {
  %3 = alloca ptr, align 8
  %4 = alloca ptr, align 8
  store ptr %0, ptr %3, align 8
  store ptr %1, ptr %4, align 8
  %5 = load ptr, ptr %4, align 8
  %6 = icmp ne ptr %5, null
  br i1 %6, label %7, label %9

7:                                                ; preds = %2
  %8 = load ptr, ptr %4, align 8
  call void @_ZN2os4freeEPv(ptr noundef %8)
  br label %9

9:                                                ; preds = %7, %2
  ret i32 0
}

; Function Attrs: mustprogress nounwind uwtable
define linkonce_odr hidden noundef ptr @_ZNK14SystemProperty5valueEv(ptr noundef nonnull align 8 dereferenceable(26) %0) #1 comdat align 2 {
  %2 = alloca ptr, align 8
  store ptr %0, ptr %2, align 8
  %3 = load ptr, ptr %2, align 8
  %4 = call noundef ptr @_ZNK10PathString5valueEv(ptr noundef nonnull align 8 dereferenceable(8) %3)
  ret ptr %4
}

; Function Attrs: mustprogress nounwind uwtable
define linkonce_odr hidden noundef ptr @_ZNK14SystemProperty4nextEv(ptr noundef nonnull align 8 dereferenceable(26) %0) #1 comdat align 2 {
  %2 = alloca ptr, align 8
  store ptr %0, ptr %2, align 8
  %3 = load ptr, ptr %2, align 8
  %4 = getelementptr inbounds %class.SystemProperty, ptr %3, i32 0, i32 2
  %5 = load ptr, ptr %4, align 8
  ret ptr %5
}

; Function Attrs: mustprogress nounwind uwtable
define hidden noundef i32 @_ZN8JvmtiEnv10DeallocateEPh(ptr noundef nonnull align 8 dereferenceable(460) %0, ptr noundef %1) #1 align 2 {
  %3 = alloca ptr, align 8
  %4 = alloca ptr, align 8
  store ptr %0, ptr %3, align 8
  store ptr %1, ptr %4, align 8
  %5 = load ptr, ptr %3, align 8
  %6 = load ptr, ptr %4, align 8
  %7 = call noundef i32 @_ZN12JvmtiEnvBase10deallocateEPh(ptr noundef nonnull align 8 dereferenceable(460) %5, ptr noundef %6)
  ret i32 %7
}

; Function Attrs: mustprogress nounwind uwtable
define linkonce_odr hidden noundef ptr @_ZNK14SystemProperty3keyEv(ptr noundef nonnull align 8 dereferenceable(26) %0) #1 comdat align 2 {
  %2 = alloca ptr, align 8
  store ptr %0, ptr %2, align 8
  %3 = load ptr, ptr %2, align 8
  %4 = getelementptr inbounds %class.SystemProperty, ptr %3, i32 0, i32 1
  %5 = load ptr, ptr %4, align 8
  ret ptr %5
}

; Function Attrs: mustprogress nounwind uwtable
define linkonce_odr hidden noundef zeroext i1 @_ZNK14SystemProperty8readableEv(ptr noundef nonnull align 8 dereferenceable(26) %0) #1 comdat align 2 {
  %2 = alloca ptr, align 8
  store ptr %0, ptr %2, align 8
  %3 = load ptr, ptr %2, align 8
  %4 = getelementptr inbounds %class.SystemProperty, ptr %3, i32 0, i32 3
  %5 = load i8, ptr %4, align 8
  %6 = trunc i8 %5 to i1
  br i1 %6, label %7, label %17

7:                                                ; preds = %1
  %8 = getelementptr inbounds %class.SystemProperty, ptr %3, i32 0, i32 1
  %9 = load ptr, ptr %8, align 8
  %10 = call i32 @strcmp(ptr noundef %9, ptr noundef @.str.29) #11
  %11 = icmp eq i32 %10, 0
  br i1 %11, label %12, label %15

12:                                               ; preds = %7
  %13 = call noundef ptr @_ZNK14SystemProperty5valueEv(ptr noundef nonnull align 8 dereferenceable(26) %3)
  %14 = icmp ne ptr %13, null
  br label %15

15:                                               ; preds = %12, %7
  %16 = phi i1 [ false, %7 ], [ %14, %12 ]
  br label %17

17:                                               ; preds = %15, %1
  %18 = phi i1 [ true, %1 ], [ %16, %15 ]
  ret i1 %18
}

; Function Attrs: mustprogress nounwind uwtable
define linkonce_odr hidden noundef i32 @_ZN12JvmtiEnvBase8allocateElPPh(ptr noundef nonnull align 8 dereferenceable(460) %0, i64 noundef %1, ptr noundef %2) #1 comdat align 2 {
  %4 = alloca i32, align 4
  %5 = alloca ptr, align 8
  %6 = alloca i64, align 8
  %7 = alloca ptr, align 8
  store ptr %0, ptr %5, align 8
  store i64 %1, ptr %6, align 8
  store ptr %2, ptr %7, align 8
  %8 = load i64, ptr %6, align 8
  %9 = icmp slt i64 %8, 0
  br i1 %9, label %10, label %11

10:                                               ; preds = %3
  store i32 103, ptr %4, align 4
  br label %26

11:                                               ; preds = %3
  %12 = load i64, ptr %6, align 8
  %13 = icmp eq i64 %12, 0
  br i1 %13, label %14, label %16

14:                                               ; preds = %11
  %15 = load ptr, ptr %7, align 8
  store ptr null, ptr %15, align 8
  br label %25

16:                                               ; preds = %11
  %17 = load i64, ptr %6, align 8
  %18 = call noundef ptr @_ZN2os6mallocEm8MEMFLAGS(i64 noundef %17, i8 noundef zeroext 9)
  %19 = load ptr, ptr %7, align 8
  store ptr %18, ptr %19, align 8
  %20 = load ptr, ptr %7, align 8
  %21 = load ptr, ptr %20, align 8
  %22 = icmp eq ptr %21, null
  br i1 %22, label %23, label %24

23:                                               ; preds = %16
  store i32 110, ptr %4, align 4
  br label %26

24:                                               ; preds = %16
  br label %25

25:                                               ; preds = %24, %14
  store i32 0, ptr %4, align 4
  br label %26

26:                                               ; preds = %25, %23, %10
  %27 = load i32, ptr %4, align 4
  ret i32 %27
}

; Function Attrs: mustprogress nounwind uwtable
define linkonce_odr hidden noundef ptr @_ZN9Arguments17system_propertiesEv() #1 comdat align 2 {
  %1 = load ptr, ptr @_ZN9Arguments18_system_propertiesE, align 8
  ret ptr %1
}

; Function Attrs: mustprogress nounwind uwtable
define hidden noundef i32 @_ZN8JvmtiEnv19GetSystemPropertiesEPiPPPc(ptr noundef nonnull align 8 dereferenceable(460) %0, ptr noundef %1, ptr noundef %2) #1 align 2 {
  %4 = alloca i32, align 4
  %5 = alloca ptr, align 8
  %6 = alloca ptr, align 8
  %7 = alloca ptr, align 8
  %8 = alloca i32, align 4
  %9 = alloca i32, align 4
  %10 = alloca ptr, align 8
  %11 = alloca ptr, align 8
  %12 = alloca ptr, align 8
  %13 = alloca i32, align 4
  store ptr %0, ptr %5, align 8
  store ptr %1, ptr %6, align 8
  store ptr %2, ptr %7, align 8
  %14 = load ptr, ptr %5, align 8
  store i32 0, ptr %8, align 4
  %15 = call noundef ptr @_ZN9Arguments17system_propertiesEv()
  %16 = call noundef i32 @_ZN9Arguments27PropertyList_readable_countEP14SystemProperty(ptr noundef %15)
  %17 = load ptr, ptr %6, align 8
  store i32 %16, ptr %17, align 4
  %18 = load ptr, ptr %6, align 8
  %19 = load i32, ptr %18, align 4
  %20 = sext i32 %19 to i64
  %21 = mul i64 %20, 8
  %22 = load ptr, ptr %7, align 8
  %23 = call noundef i32 @_ZN12JvmtiEnvBase8allocateElPPh(ptr noundef nonnull align 8 dereferenceable(460) %14, i64 noundef %21, ptr noundef %22)
  store i32 %23, ptr %8, align 4
  %24 = load i32, ptr %8, align 4
  %25 = icmp ne i32 %24, 0
  br i1 %25, label %26, label %28

26:                                               ; preds = %3
  %27 = load i32, ptr %8, align 4
  store i32 %27, ptr %4, align 4
  br label %91

28:                                               ; preds = %3
  store i32 0, ptr %9, align 4
  %29 = call noundef ptr @_ZN9Arguments17system_propertiesEv()
  store ptr %29, ptr %10, align 8
  br label %30

30:                                               ; preds = %86, %28
  %31 = load ptr, ptr %10, align 8
  %32 = icmp ne ptr %31, null
  br i1 %32, label %33, label %38

33:                                               ; preds = %30
  %34 = load i32, ptr %9, align 4
  %35 = load ptr, ptr %6, align 8
  %36 = load i32, ptr %35, align 4
  %37 = icmp slt i32 %34, %36
  br label %38

38:                                               ; preds = %33, %30
  %39 = phi i1 [ false, %30 ], [ %37, %33 ]
  br i1 %39, label %40, label %89

40:                                               ; preds = %38
  %41 = load ptr, ptr %10, align 8
  %42 = call noundef zeroext i1 @_ZNK14SystemProperty8readableEv(ptr noundef nonnull align 8 dereferenceable(26) %41)
  br i1 %42, label %43, label %85

43:                                               ; preds = %40
  %44 = load ptr, ptr %10, align 8
  %45 = call noundef ptr @_ZNK14SystemProperty3keyEv(ptr noundef nonnull align 8 dereferenceable(26) %44)
  store ptr %45, ptr %11, align 8
  %46 = load ptr, ptr %7, align 8
  %47 = load ptr, ptr %46, align 8
  %48 = load i32, ptr %9, align 4
  %49 = sext i32 %48 to i64
  %50 = getelementptr inbounds ptr, ptr %47, i64 %49
  store ptr %50, ptr %12, align 8
  %51 = load i32, ptr %9, align 4
  %52 = add nsw i32 %51, 1
  store i32 %52, ptr %9, align 4
  %53 = load ptr, ptr %11, align 8
  %54 = call i64 @strlen(ptr noundef %53) #11
  %55 = add i64 %54, 1
  %56 = mul i64 %55, 1
  %57 = load ptr, ptr %12, align 8
  %58 = call noundef i32 @_ZN12JvmtiEnvBase8allocateElPPh(ptr noundef nonnull align 8 dereferenceable(460) %14, i64 noundef %56, ptr noundef %57)
  store i32 %58, ptr %8, align 4
  %59 = load i32, ptr %8, align 4
  %60 = icmp eq i32 %59, 0
  br i1 %60, label %61, label %66

61:                                               ; preds = %43
  %62 = load ptr, ptr %12, align 8
  %63 = load ptr, ptr %62, align 8
  %64 = load ptr, ptr %11, align 8
  %65 = call ptr @strcpy(ptr noundef %63, ptr noundef %64) #9
  br label %84

66:                                               ; preds = %43
  store i32 0, ptr %13, align 4
  br label %67

67:                                               ; preds = %78, %66
  %68 = load i32, ptr %13, align 4
  %69 = load i32, ptr %9, align 4
  %70 = icmp slt i32 %68, %69
  br i1 %70, label %71, label %81

71:                                               ; preds = %67
  %72 = load ptr, ptr %7, align 8
  %73 = load ptr, ptr %72, align 8
  %74 = load i32, ptr %13, align 4
  %75 = sext i32 %74 to i64
  %76 = getelementptr inbounds i8, ptr %73, i64 %75
  %77 = call noundef i32 @_ZN8JvmtiEnv10DeallocateEPh(ptr noundef nonnull align 8 dereferenceable(460) %14, ptr noundef %76)
  br label %78

78:                                               ; preds = %71
  %79 = load i32, ptr %13, align 4
  %80 = add nsw i32 %79, 1
  store i32 %80, ptr %13, align 4
  br label %67, !llvm.loop !32

81:                                               ; preds = %67
  %82 = load ptr, ptr %7, align 8
  %83 = call noundef i32 @_ZN8JvmtiEnv10DeallocateEPh(ptr noundef nonnull align 8 dereferenceable(460) %14, ptr noundef %82)
  br label %89

84:                                               ; preds = %61
  br label %85

85:                                               ; preds = %84, %40
  br label %86

86:                                               ; preds = %85
  %87 = load ptr, ptr %10, align 8
  %88 = call noundef ptr @_ZNK14SystemProperty4nextEv(ptr noundef nonnull align 8 dereferenceable(26) %87)
  store ptr %88, ptr %10, align 8
  br label %30, !llvm.loop !33

89:                                               ; preds = %81, %38
  %90 = load i32, ptr %8, align 4
  store i32 %90, ptr %4, align 4
  br label %91

91:                                               ; preds = %89, %26
  %92 = load i32, ptr %4, align 4
  ret i32 %92
}