; Function Attrs: mustprogress nounwind uwtable
define hidden noundef i32 @_ZN8JvmtiEnv19GetSystemPropertiesEPiPPPc(ptr nocapture noundef nonnull readnone align 8 dereferenceable(460) %0, ptr nocapture noundef %1, ptr noundef %2) local_unnamed_addr #0 align 2 {
  %4 = load ptr, ptr @_ZN9Arguments18_system_propertiesE, align 8
  %5 = tail call noundef i32 @_ZN9Arguments27PropertyList_readable_countEP14SystemProperty(ptr noundef %4) #17
  store i32 %5, ptr %1, align 4
  %6 = sext i32 %5 to i64
  %7 = shl nsw i64 %6, 3
  %8 = icmp slt i32 %5, 0
  br i1 %8, label %.critedge, label %9

9:                                                ; preds = %3
  %10 = icmp eq i32 %5, 0
  br i1 %10, label %11, label %12

11:                                               ; preds = %9
  store ptr null, ptr %2, align 8
  br label %_ZN12JvmtiEnvBase8allocateElPPh.exit

12:                                               ; preds = %9
  %13 = tail call noundef ptr @_ZN2os6mallocEm8MEMFLAGS(i64 noundef %7, i8 noundef zeroext 9) #17
  store ptr %13, ptr %2, align 8
  %14 = icmp eq ptr %13, null
  br i1 %14, label %.critedge, label %_ZN12JvmtiEnvBase8allocateElPPh.exit

_ZN12JvmtiEnvBase8allocateElPPh.exit:             ; preds = %12, %11
  %.02947 = load ptr, ptr @_ZN9Arguments18_system_propertiesE, align 8
  %.not3648 = icmp eq ptr %.02947, null
  br i1 %.not3648, label %.critedge, label %.lr.ph

.lr.ph:                                           ; preds = %_ZN12JvmtiEnvBase8allocateElPPh.exit, %_ZNK14SystemProperty8readableEv.exit.thread44
  %.02950 = phi ptr [ %.029, %_ZNK14SystemProperty8readableEv.exit.thread44 ], [ %.02947, %_ZN12JvmtiEnvBase8allocateElPPh.exit ]
  %.03049 = phi i32 [ %.131, %_ZNK14SystemProperty8readableEv.exit.thread44 ], [ 0, %_ZN12JvmtiEnvBase8allocateElPPh.exit ]
  %15 = load i32, ptr %1, align 4
  %16 = icmp slt i32 %.03049, %15
  br i1 %16, label %17, label %.critedge

17:                                               ; preds = %.lr.ph
  %18 = getelementptr inbounds i8, ptr %.02950, i64 24
  %19 = load i8, ptr %18, align 8
  %20 = trunc i8 %19 to i1
  %21 = getelementptr inbounds i8, ptr %.02950, i64 8
  %22 = load ptr, ptr %21, align 8
  br i1 %20, label %23, label %_ZNK14SystemProperty8readableEv.exit.thread

23:                                               ; preds = %17
  %24 = tail call i32 @strcmp(ptr noundef nonnull dereferenceable(1) %22, ptr noundef nonnull dereferenceable(27) @.str.29) #18
  %25 = icmp eq i32 %24, 0
  br i1 %25, label %_ZNK14SystemProperty8readableEv.exit, label %_ZNK14SystemProperty8readableEv.exit.thread44

_ZNK14SystemProperty8readableEv.exit:             ; preds = %23
  %26 = load ptr, ptr %.02950, align 8
  %.not = icmp eq ptr %26, null
  br i1 %.not, label %_ZNK14SystemProperty8readableEv.exit.thread44, label %_ZNK14SystemProperty8readableEv.exit.thread

_ZNK14SystemProperty8readableEv.exit.thread:      ; preds = %17, %_ZNK14SystemProperty8readableEv.exit
  %27 = tail call i64 @strlen(ptr noundef nonnull dereferenceable(1) %22) #18
  %28 = add i64 %27, 1
  %29 = icmp slt i64 %28, 0
  br i1 %29, label %_ZN12JvmtiEnvBase8allocateElPPh.exit39, label %30

30:                                               ; preds = %_ZNK14SystemProperty8readableEv.exit.thread
  %31 = load ptr, ptr %2, align 8
  %32 = sext i32 %.03049 to i64
  %33 = getelementptr inbounds ptr, ptr %31, i64 %32
  %34 = icmp ne i64 %28, 0
  tail call void @llvm.assume(i1 %34)
  %35 = tail call noundef ptr @_ZN2os6mallocEm8MEMFLAGS(i64 noundef %28, i8 noundef zeroext 9) #17
  store ptr %35, ptr %33, align 8
  %36 = icmp eq ptr %35, null
  br i1 %36, label %_ZN12JvmtiEnvBase8allocateElPPh.exit39, label %40

_ZN12JvmtiEnvBase8allocateElPPh.exit39:           ; preds = %_ZNK14SystemProperty8readableEv.exit.thread, %30
  %.0.i38 = phi i32 [ 103, %_ZNK14SystemProperty8readableEv.exit.thread ], [ 110, %30 ]
  %.not3752 = icmp slt i32 %.03049, 0
  br i1 %.not3752, label %_ZN8JvmtiEnv10DeallocateEPh.exit41, label %.lr.ph54

.lr.ph54:                                         ; preds = %_ZN12JvmtiEnvBase8allocateElPPh.exit39
  %37 = load ptr, ptr %2, align 8
  %38 = icmp eq ptr %37, null
  br i1 %38, label %_ZN8JvmtiEnv10DeallocateEPh.exit41, label %.lr.ph54.split.preheader

.lr.ph54.split.preheader:                         ; preds = %.lr.ph54
  %39 = add nuw i32 %.03049, 1
  %wide.trip.count = zext i32 %39 to i64
  br label %.lr.ph54.split

40:                                               ; preds = %30
  %41 = add nsw i32 %.03049, 1
  %42 = tail call ptr @strcpy(ptr noundef nonnull dereferenceable(1) %35, ptr noundef nonnull dereferenceable(1) %22) #17
  br label %_ZNK14SystemProperty8readableEv.exit.thread44

.lr.ph54.splitthread-pre-split:                   ; preds = %_ZN8JvmtiEnv10DeallocateEPh.exit
  %.pr = load ptr, ptr %2, align 8
  br label %.lr.ph54.split

.lr.ph54.split:                                   ; preds = %.lr.ph54.splitthread-pre-split, %.lr.ph54.split.preheader
  %43 = phi ptr [ %.pr, %.lr.ph54.splitthread-pre-split ], [ %37, %.lr.ph54.split.preheader ]
  %indvars.iv = phi i64 [ %indvars.iv.next, %.lr.ph54.splitthread-pre-split ], [ 0, %.lr.ph54.split.preheader ]
  %.not.i.i = icmp eq ptr %43, null
  br i1 %.not.i.i, label %_ZN8JvmtiEnv10DeallocateEPh.exit, label %44

44:                                               ; preds = %.lr.ph54.split
  %45 = getelementptr inbounds i8, ptr %43, i64 %indvars.iv
  tail call void @_ZN2os4freeEPv(ptr noundef nonnull %45) #17
  br label %_ZN8JvmtiEnv10DeallocateEPh.exit

_ZN8JvmtiEnv10DeallocateEPh.exit:                 ; preds = %.lr.ph54.split, %44
  %indvars.iv.next = add nuw nsw i64 %indvars.iv, 1
  %exitcond.not = icmp eq i64 %indvars.iv.next, %wide.trip.count
  br i1 %exitcond.not, label %_ZN8JvmtiEnv10DeallocateEPh.exit41, label %.lr.ph54.splitthread-pre-split, !llvm.loop !47

_ZN8JvmtiEnv10DeallocateEPh.exit41:               ; preds = %_ZN8JvmtiEnv10DeallocateEPh.exit, %.lr.ph54, %_ZN12JvmtiEnvBase8allocateElPPh.exit39
  tail call void @_ZN2os4freeEPv(ptr noundef nonnull %2) #17
  br label %.critedge

_ZNK14SystemProperty8readableEv.exit.thread44:    ; preds = %23, %_ZNK14SystemProperty8readableEv.exit, %40
  %.131 = phi i32 [ %41, %40 ], [ %.03049, %_ZNK14SystemProperty8readableEv.exit ], [ %.03049, %23 ]
  %46 = getelementptr inbounds i8, ptr %.02950, i64 16
  %.029 = load ptr, ptr %46, align 8
  %.not36 = icmp eq ptr %.029, null
  br i1 %.not36, label %.critedge, label %.lr.ph, !llvm.loop !49

.critedge:                                        ; preds = %_ZNK14SystemProperty8readableEv.exit.thread44, %.lr.ph, %_ZN12JvmtiEnvBase8allocateElPPh.exit, %12, %3, %_ZN8JvmtiEnv10DeallocateEPh.exit41
  %.027 = phi i32 [ %.0.i38, %_ZN8JvmtiEnv10DeallocateEPh.exit41 ], [ 110, %12 ], [ 103, %3 ], [ 0, %_ZN12JvmtiEnvBase8allocateElPPh.exit ], [ 0, %.lr.ph ], [ 0, %_ZNK14SystemProperty8readableEv.exit.thread44 ]
  ret i32 %.027
}